; Function Attrs: mustprogress uwtable
define internal noundef ptr @_ZN12_GLOBAL__N_118reduce_args_tactic9translateER11ast_manager(ptr nonnull readnone align 8 captures(none) %0, ptr noundef nonnull align 8 dereferenceable(976) %1) unnamed_addr #3 align 2 personality ptr @__gxx_personality_v0 {
  %3 = tail call noalias noundef ptr @_ZN6memory8allocateEm(i64 noundef 80)
  %4 = getelementptr inbounds nuw i8, ptr %3, i64 8
  store i32 0, ptr %4, align 8, !tbaa !3
  store ptr getelementptr inbounds nuw inrange(-16, 192) (i8, ptr @_ZTVN12_GLOBAL__N_118reduce_args_tacticE, i64 16), ptr %3, align 8, !tbaa !9
  %5 = getelementptr inbounds nuw i8, ptr %3, i64 16
  %6 = ptrtoint ptr %1 to i64
  store i64 %6, ptr %5, align 8, !tbaa !11
  %7 = getelementptr inbounds nuw i8, ptr %3, i64 24
  store ptr null, ptr %7, align 8, !tbaa !14
  %8 = getelementptr inbounds nuw i8, ptr %3, i64 32
  store ptr %1, ptr %8, align 8, !tbaa !11
  %9 = getelementptr inbounds nuw i8, ptr %3, i64 40
  invoke void @_ZN7bv_utilC1ER11ast_manager(ptr noundef nonnull align 8 dereferenceable(24) %9, ptr noundef nonnull align 8 dereferenceable(976) %1)
          to label %10 unwind label %12

10:                                               ; preds = %2
  %11 = getelementptr inbounds nuw i8, ptr %3, i64 64
  invoke void @_ZN10array_utilC1ER11ast_manager(ptr noundef nonnull align 8 dereferenceable(16) %11, ptr noundef nonnull align 8 dereferenceable(976) %1)
          to label %_ZN12_GLOBAL__N_118reduce_args_tacticC2ER11ast_manager.exit unwind label %12

12:                                               ; preds = %10, %2
  %13 = landingpad { ptr, i32 }
          cleanup
  tail call void @_ZN15ref_vector_coreI4expr19ref_manager_wrapperIS0_11ast_managerEED2Ev(ptr noundef nonnull align 8 dereferenceable(16) %5) #20
  resume { ptr, i32 } %13

_ZN12_GLOBAL__N_118reduce_args_tacticC2ER11ast_manager.exit: ; preds = %10
  ret ptr %3
}